target datalayout = "e-m:e-p270:32:32-p271:32:32-p272:64:64-i64:64-i128:128-f80:128-n8:16:32:64-S128"
target triple = "x86_64-pc-linux-gnu"

%struct._zend_executor_globals = type { %struct._zval_struct, %struct._zval_struct, [32 x ptr], ptr, ptr, %struct._zend_array, %struct._zend_array, ptr, i32, i8, %struct._zval_struct, i32, ptr, ptr, ptr, ptr, ptr, ptr, i64, ptr, ptr, i32, ptr, i32, i64, i32, i32, i32, i8, i8, %struct.zend_atomic_bool_s, %struct.zend_atomic_bool_s, ptr, i64, ptr, ptr, %struct._zend_array, %struct._zend_array, i32, i8, %struct._zval_struct, %struct._zval_struct, %struct._zend_stack, %struct._zend_stack, %struct._zend_stack, ptr, i32, i32, i64, ptr, ptr, ptr, %struct._zend_objects_store, %struct._zend_lazy_objects_store, ptr, ptr, ptr, [3 x %struct._zend_op], ptr, i8, i8, i64, i32, i32, ptr, [16 x %struct._HashTableIterator], ptr, %union._zend_function, %struct._zend_op, %struct._zend_array, i64, %struct.zend_get_gc_buffer, ptr, ptr, ptr, i64, i8, i32, ptr, ptr, i64, %struct._zend_call_stack, i64, i64, %struct._zend_strtod_state, [6 x ptr] }
%struct.zend_atomic_bool_s = type { i8 }
%struct._zval_struct = type { %union._zend_value, %union.anon, %union.anon.2 }
%union._zend_value = type { i64 }
%union.anon = type { i32 }
%union.anon.2 = type { i32 }
%struct._zend_stack = type { i32, i32, i32, ptr }
%struct._zend_objects_store = type { ptr, i32, i32, i32 }
%struct._zend_lazy_objects_store = type { %struct._zend_array }
%struct._HashTableIterator = type { ptr, i32, i32 }
%union._zend_function = type { %struct._zend_op_array }
%struct._zend_op_array = type { i8, [3 x i8], i32, ptr, ptr, ptr, i32, i32, ptr, ptr, ptr, ptr, i32, ptr, i32, i32, i32, ptr, ptr, ptr, ptr, ptr, i32, i32, ptr, ptr, ptr, i32, i32, i32, i32, ptr, ptr, [6 x ptr] }
%struct._zend_op = type { ptr, %union._znode_op, %union._znode_op, %union._znode_op, i32, i32, i8, i8, i8, i8 }
%union._znode_op = type { i32 }
%struct._zend_array = type { %struct._zend_refcounted_h, %union.anon.4, i32, %union.anon.6, i32, i32, i32, i32, i64, ptr }
%struct._zend_refcounted_h = type { i32, %union.anon.3 }
%union.anon.3 = type { i32 }
%union.anon.4 = type { i32 }
%union.anon.6 = type { ptr }
%struct.zend_get_gc_buffer = type { ptr, ptr, ptr }
%struct._zend_call_stack = type { ptr, i64 }
%struct._zend_strtod_state = type { [8 x ptr], ptr, ptr }
%struct._zend_fcall_info_cache = type { ptr, ptr, ptr, ptr, ptr }
%struct._zend_llist = type { ptr, ptr, i64, i64, ptr, i8, ptr }
%struct._zend_execute_data = type { ptr, ptr, ptr, ptr, %struct._zval_struct, ptr, ptr, ptr, ptr }
%struct._php_sqlite3_db_object = type { i8, i8, ptr, ptr, ptr, %struct._zend_fcall_info_cache, %struct._zend_llist, %struct._zend_object }
%struct._zend_object = type { %struct._zend_refcounted_h, i32, i32, ptr, ptr, ptr, [1 x %struct._zval_struct] }

@executor_globals = external global %struct._zend_executor_globals, align 8
@.str.6 = private unnamed_addr constant [29 x i8] c"Unable to close database: %s\00", align 1

; Function Attrs: inlinehint nounwind uwtable
define internal ptr @php_sqlite3_db_from_obj(ptr noundef %0) #2 {
  %2 = alloca ptr, align 8
  store ptr %0, ptr %2, align 8, !tbaa !67
  %3 = load ptr, ptr %2, align 8, !tbaa !67
  %4 = getelementptr inbounds i8, ptr %3, i64 -128
  ret ptr %4
}

; Function Attrs: nounwind uwtable
define hidden void @zim_SQLite3_close(ptr noundef %0, ptr noundef %1) #0 {
  %3 = alloca ptr, align 8
  %4 = alloca ptr, align 8
  %5 = alloca ptr, align 8
  %6 = alloca ptr, align 8
  %7 = alloca i32, align 4
  %8 = alloca i32, align 4
  store ptr %0, ptr %3, align 8, !tbaa !4
  store ptr %1, ptr %4, align 8, !tbaa !9
  call void @llvm.lifetime.start.p0(i64 8, ptr %5) #15
  call void @llvm.lifetime.start.p0(i64 8, ptr %6) #15
  %9 = load ptr, ptr %3, align 8, !tbaa !4
  %10 = getelementptr inbounds nuw %struct._zend_execute_data, ptr %9, i32 0, i32 4
  store ptr %10, ptr %6, align 8, !tbaa !9
  call void @llvm.lifetime.start.p0(i64 4, ptr %7) #15
  %11 = load ptr, ptr %6, align 8, !tbaa !9
  %12 = getelementptr inbounds nuw %struct._zval_struct, ptr %11, i32 0, i32 0
  %13 = load ptr, ptr %12, align 8, !tbaa !13
  %14 = call ptr @php_sqlite3_db_from_obj(ptr noundef %13)
  store ptr %14, ptr %5, align 8, !tbaa !14
  %15 = load ptr, ptr %3, align 8, !tbaa !4
  %16 = getelementptr inbounds nuw %struct._zend_execute_data, ptr %15, i32 0, i32 4
  %17 = getelementptr inbounds nuw %struct._zval_struct, ptr %16, i32 0, i32 2
  %18 = load i32, ptr %17, align 4, !tbaa !13
  %19 = icmp eq i32 %18, 0
  %20 = xor i1 %19, true
  %21 = xor i1 %20, true
  %22 = zext i1 %21 to i32
  %23 = sext i32 %22 to i64
  %24 = call i64 @llvm.expect.i64(i64 %23, i64 1)
  %25 = icmp ne i64 %24, 0
  br i1 %25, label %26, label %27

26:                                               ; preds = %2
  br label %28

27:                                               ; preds = %2
  call void @zend_wrong_parameters_none_error()
  br label %28

28:                                               ; preds = %27, %26
  %29 = phi i32 [ 0, %26 ], [ -1, %27 ]
  %30 = icmp eq i32 %29, -1
  br i1 %30, label %31, label %37

31:                                               ; preds = %28
  br label %32

32:                                               ; preds = %31
  %33 = load ptr, ptr getelementptr inbounds nuw (%struct._zend_executor_globals, ptr @executor_globals, i32 0, i32 54), align 8, !tbaa !16
  %34 = icmp ne ptr %33, null
  call void @llvm.assume(i1 %34)
  store i32 1, ptr %8, align 4
  br label %84

35:                                               ; No predecessors!
  br label %36

36:                                               ; preds = %35
  br label %37

37:                                               ; preds = %36, %28
  %38 = load ptr, ptr %5, align 8, !tbaa !14
  %39 = getelementptr inbounds nuw %struct._php_sqlite3_db_object, ptr %38, i32 0, i32 0
  %40 = load i8, ptr %39, align 8, !tbaa !48, !range !59, !noundef !60
  %41 = trunc i8 %40 to i1
  br i1 %41, label %42, label %75

42:                                               ; preds = %37
  %43 = load ptr, ptr %5, align 8, !tbaa !14
  %44 = getelementptr inbounds nuw %struct._php_sqlite3_db_object, ptr %43, i32 0, i32 6
  call void @zend_llist_clean(ptr noundef %44)
  %45 = load ptr, ptr %5, align 8, !tbaa !14
  %46 = getelementptr inbounds nuw %struct._php_sqlite3_db_object, ptr %45, i32 0, i32 2
  %47 = load ptr, ptr %46, align 8, !tbaa !64
  %48 = icmp ne ptr %47, null
  br i1 %48, label %49, label %72

49:                                               ; preds = %42
  %50 = load ptr, ptr %5, align 8, !tbaa !14
  %51 = getelementptr inbounds nuw %struct._php_sqlite3_db_object, ptr %50, i32 0, i32 2
  %52 = load ptr, ptr %51, align 8, !tbaa !64
  %53 = call i32 @sqlite3_close(ptr noundef %52)
  store i32 %53, ptr %7, align 4, !tbaa !63
  %54 = load i32, ptr %7, align 4, !tbaa !63
  %55 = icmp ne i32 %54, 0
  br i1 %55, label %56, label %71

56:                                               ; preds = %49
  %57 = load ptr, ptr %5, align 8, !tbaa !14
  %58 = load i32, ptr %7, align 4, !tbaa !63
  %59 = load ptr, ptr %5, align 8, !tbaa !14
  %60 = getelementptr inbounds nuw %struct._php_sqlite3_db_object, ptr %59, i32 0, i32 2
  %61 = load ptr, ptr %60, align 8, !tbaa !64
  %62 = call ptr @sqlite3_errmsg(ptr noundef %61)
  call void (ptr, i32, ptr, ...) @php_sqlite3_error(ptr noundef %57, i32 noundef %58, ptr noundef @.str.6, ptr noundef %62)
  br label %63

63:                                               ; preds = %56
  br label %64

64:                                               ; preds = %63
  %65 = load ptr, ptr %4, align 8, !tbaa !9
  %66 = getelementptr inbounds nuw %struct._zval_struct, ptr %65, i32 0, i32 1
  store i32 2, ptr %66, align 8, !tbaa !13
  br label %67

67:                                               ; preds = %64
  br label %68

68:                                               ; preds = %67
  store i32 1, ptr %8, align 4
  br label %84

69:                                               ; No predecessors!
  br label %70

70:                                               ; preds = %69
  br label %71

71:                                               ; preds = %70, %49
  br label %72

72:                                               ; preds = %71, %42
  %73 = load ptr, ptr %5, align 8, !tbaa !14
  %74 = getelementptr inbounds nuw %struct._php_sqlite3_db_object, ptr %73, i32 0, i32 0
  store i8 0, ptr %74, align 8, !tbaa !48
  br label %75

75:                                               ; preds = %72, %37
  br label %76

76:                                               ; preds = %75
  br label %77

77:                                               ; preds = %76
  %78 = load ptr, ptr %4, align 8, !tbaa !9
  %79 = getelementptr inbounds nuw %struct._zval_struct, ptr %78, i32 0, i32 1
  store i32 3, ptr %79, align 8, !tbaa !13
  br label %80

80:                                               ; preds = %77
  br label %81

81:                                               ; preds = %80
  store i32 1, ptr %8, align 4
  br label %84

82:                                               ; No predecessors!
  br label %83

83:                                               ; preds = %82
  store i32 0, ptr %8, align 4
  br label %84

84:                                               ; preds = %83, %81, %68, %32
  call void @llvm.lifetime.end.p0(i64 4, ptr %7) #15
  call void @llvm.lifetime.end.p0(i64 8, ptr %6) #15
  call void @llvm.lifetime.end.p0(i64 8, ptr %5) #15
  %85 = load i32, ptr %8, align 4
  switch i32 %85, label %87 [
    i32 0, label %86
    i32 1, label %86
  ]

86:                                               ; preds = %84, %84
  ret void

87:                                               ; preds = %84
  unreachable
}