; Function Attrs: nounwind uwtable
define hidden void @zim_SQLite3_close(ptr noundef readonly captures(none) %0, ptr noundef writeonly captures(none) %1) #0 {
  %3 = getelementptr inbounds nuw i8, ptr %0, i64 32
  %4 = load ptr, ptr %3, align 8, !tbaa !8
  %5 = getelementptr inbounds i8, ptr %4, i64 -128
  %6 = getelementptr inbounds nuw i8, ptr %0, i64 44
  %7 = load i32, ptr %6, align 4, !tbaa !8
  %.not = icmp eq i32 %7, 0
  br i1 %.not, label %.critedge, label %8, !prof !75

8:                                                ; preds = %2
  tail call void @zend_wrong_parameters_none_error() #17
  %9 = load ptr, ptr getelementptr inbounds nuw (i8, ptr @executor_globals, i64 960), align 8, !tbaa !9
  %10 = icmp ne ptr %9, null
  tail call void @llvm.assume(i1 %10)
  br label %26

.critedge:                                        ; preds = %2
  %11 = load i8, ptr %5, align 8, !tbaa !44, !range !55, !noundef !56
  %12 = trunc nuw i8 %11 to i1
  br i1 %12, label %13, label %24

13:                                               ; preds = %.critedge
  %14 = getelementptr inbounds i8, ptr %4, i64 -56
  tail call void @zend_llist_clean(ptr noundef nonnull %14) #17
  %15 = getelementptr inbounds i8, ptr %4, i64 -120
  %16 = load ptr, ptr %15, align 8, !tbaa !59
  %.not14 = icmp eq ptr %16, null
  br i1 %.not14, label %23, label %17

17:                                               ; preds = %13
  %18 = tail call i32 @sqlite3_close(ptr noundef nonnull %16) #17
  %.not15 = icmp eq i32 %18, 0
  br i1 %.not15, label %23, label %19

19:                                               ; preds = %17
  %20 = load ptr, ptr %15, align 8, !tbaa !59
  %21 = tail call ptr @sqlite3_errmsg(ptr noundef %20) #17
  tail call void (ptr, i32, ptr, ...) @php_sqlite3_error(ptr noundef nonnull %5, i32 noundef %18, ptr noundef nonnull @.str.6, ptr noundef %21)
  %22 = getelementptr inbounds nuw i8, ptr %1, i64 8
  store i32 2, ptr %22, align 8, !tbaa !8
  br label %26

23:                                               ; preds = %17, %13
  store i8 0, ptr %5, align 8, !tbaa !44
  br label %24

24:                                               ; preds = %23, %.critedge
  %25 = getelementptr inbounds nuw i8, ptr %1, i64 8
  store i32 3, ptr %25, align 8, !tbaa !8
  br label %26

26:                                               ; preds = %24, %19, %8
  ret void
}